
redirect-bad:     file format elf32-i386


Disassembly of section .init:

080482f0 <_init>:
 80482f0:	53                   	push   %ebx
 80482f1:	83 ec 08             	sub    $0x8,%esp
 80482f4:	e8 00 00 00 00       	call   80482f9 <_init+0x9>
 80482f9:	5b                   	pop    %ebx
 80482fa:	81 c3 07 1d 00 00    	add    $0x1d07,%ebx
 8048300:	8b 83 fc ff ff ff    	mov    -0x4(%ebx),%eax
 8048306:	85 c0                	test   %eax,%eax
 8048308:	74 05                	je     804830f <_init+0x1f>
 804830a:	e8 51 00 00 00       	call   8048360 <__gmon_start__@plt>
 804830f:	83 c4 08             	add    $0x8,%esp
 8048312:	5b                   	pop    %ebx
 8048313:	c3                   	ret    

Disassembly of section .plt:

08048320 <printf@plt-0x10>:
 8048320:	ff 35 04 a0 04 08    	pushl  0x804a004
 8048326:	ff 25 08 a0 04 08    	jmp    *0x804a008
 804832c:	00 00                	add    %al,(%eax)
	...

08048330 <printf@plt>:
 8048330:	ff 25 0c a0 04 08    	jmp    *0x804a00c
 8048336:	68 00 00 00 00       	push   $0x0
 804833b:	e9 e0 ff ff ff       	jmp    8048320 <_init+0x30>

08048340 <gets@plt>:
 8048340:	ff 25 10 a0 04 08    	jmp    *0x804a010
 8048346:	68 08 00 00 00       	push   $0x8
 804834b:	e9 d0 ff ff ff       	jmp    8048320 <_init+0x30>

08048350 <puts@plt>:
 8048350:	ff 25 14 a0 04 08    	jmp    *0x804a014
 8048356:	68 10 00 00 00       	push   $0x10
 804835b:	e9 c0 ff ff ff       	jmp    8048320 <_init+0x30>

08048360 <__gmon_start__@plt>:
 8048360:	ff 25 18 a0 04 08    	jmp    *0x804a018
 8048366:	68 18 00 00 00       	push   $0x18
 804836b:	e9 b0 ff ff ff       	jmp    8048320 <_init+0x30>

08048370 <__libc_start_main@plt>:
 8048370:	ff 25 1c a0 04 08    	jmp    *0x804a01c
 8048376:	68 20 00 00 00       	push   $0x20
 804837b:	e9 a0 ff ff ff       	jmp    8048320 <_init+0x30>

Disassembly of section .text:

08048380 <_start>:
 8048380:	31 ed                	xor    %ebp,%ebp
 8048382:	5e                   	pop    %esi
 8048383:	89 e1                	mov    %esp,%ecx
 8048385:	83 e4 f0             	and    $0xfffffff0,%esp
 8048388:	50                   	push   %eax
 8048389:	54                   	push   %esp
 804838a:	52                   	push   %edx
 804838b:	68 40 85 04 08       	push   $0x8048540
 8048390:	68 d0 84 04 08       	push   $0x80484d0
 8048395:	51                   	push   %ecx
 8048396:	56                   	push   %esi
 8048397:	68 6c 84 04 08       	push   $0x804846c
 804839c:	e8 cf ff ff ff       	call   8048370 <__libc_start_main@plt>
 80483a1:	f4                   	hlt    
 80483a2:	66 90                	xchg   %ax,%ax
 80483a4:	66 90                	xchg   %ax,%ax
 80483a6:	66 90                	xchg   %ax,%ax
 80483a8:	66 90                	xchg   %ax,%ax
 80483aa:	66 90                	xchg   %ax,%ax
 80483ac:	66 90                	xchg   %ax,%ax
 80483ae:	66 90                	xchg   %ax,%ax

080483b0 <deregister_tm_clones>:
 80483b0:	b8 2b a0 04 08       	mov    $0x804a02b,%eax
 80483b5:	2d 28 a0 04 08       	sub    $0x804a028,%eax
 80483ba:	83 f8 06             	cmp    $0x6,%eax
 80483bd:	77 02                	ja     80483c1 <deregister_tm_clones+0x11>
 80483bf:	f3 c3                	repz ret 
 80483c1:	b8 00 00 00 00       	mov    $0x0,%eax
 80483c6:	85 c0                	test   %eax,%eax
 80483c8:	74 f5                	je     80483bf <deregister_tm_clones+0xf>
 80483ca:	55                   	push   %ebp
 80483cb:	89 e5                	mov    %esp,%ebp
 80483cd:	83 ec 18             	sub    $0x18,%esp
 80483d0:	c7 04 24 28 a0 04 08 	movl   $0x804a028,(%esp)
 80483d7:	ff d0                	call   *%eax
 80483d9:	c9                   	leave  
 80483da:	c3                   	ret    
 80483db:	90                   	nop
 80483dc:	8d 74 26 00          	lea    0x0(%esi,%eiz,1),%esi

080483e0 <register_tm_clones>:
 80483e0:	b8 28 a0 04 08       	mov    $0x804a028,%eax
 80483e5:	2d 28 a0 04 08       	sub    $0x804a028,%eax
 80483ea:	c1 f8 02             	sar    $0x2,%eax
 80483ed:	89 c2                	mov    %eax,%edx
 80483ef:	c1 ea 1f             	shr    $0x1f,%edx
 80483f2:	01 d0                	add    %edx,%eax
 80483f4:	d1 f8                	sar    %eax
 80483f6:	75 02                	jne    80483fa <register_tm_clones+0x1a>
 80483f8:	f3 c3                	repz ret 
 80483fa:	ba 00 00 00 00       	mov    $0x0,%edx
 80483ff:	85 d2                	test   %edx,%edx
 8048401:	74 f5                	je     80483f8 <register_tm_clones+0x18>
 8048403:	55                   	push   %ebp
 8048404:	89 e5                	mov    %esp,%ebp
 8048406:	83 ec 18             	sub    $0x18,%esp
 8048409:	89 44 24 04          	mov    %eax,0x4(%esp)
 804840d:	c7 04 24 28 a0 04 08 	movl   $0x804a028,(%esp)
 8048414:	ff d2                	call   *%edx
 8048416:	c9                   	leave  
 8048417:	c3                   	ret    
 8048418:	90                   	nop
 8048419:	8d b4 26 00 00 00 00 	lea    0x0(%esi,%eiz,1),%esi

08048420 <__do_global_dtors_aux>:
 8048420:	80 3d 28 a0 04 08 00 	cmpb   $0x0,0x804a028
 8048427:	75 13                	jne    804843c <__do_global_dtors_aux+0x1c>
 8048429:	55                   	push   %ebp
 804842a:	89 e5                	mov    %esp,%ebp
 804842c:	83 ec 08             	sub    $0x8,%esp
 804842f:	e8 7c ff ff ff       	call   80483b0 <deregister_tm_clones>
 8048434:	c6 05 28 a0 04 08 01 	movb   $0x1,0x804a028
 804843b:	c9                   	leave  
 804843c:	f3 c3                	repz ret 
 804843e:	66 90                	xchg   %ax,%ax

08048440 <frame_dummy>:
 8048440:	a1 10 9f 04 08       	mov    0x8049f10,%eax
 8048445:	85 c0                	test   %eax,%eax
 8048447:	74 1e                	je     8048467 <frame_dummy+0x27>
 8048449:	b8 00 00 00 00       	mov    $0x0,%eax
 804844e:	85 c0                	test   %eax,%eax
 8048450:	74 15                	je     8048467 <frame_dummy+0x27>
 8048452:	55                   	push   %ebp
 8048453:	89 e5                	mov    %esp,%ebp
 8048455:	83 ec 18             	sub    $0x18,%esp
 8048458:	c7 04 24 10 9f 04 08 	movl   $0x8049f10,(%esp)
 804845f:	ff d0                	call   *%eax
 8048461:	c9                   	leave  
 8048462:	e9 79 ff ff ff       	jmp    80483e0 <register_tm_clones>
 8048467:	e9 74 ff ff ff       	jmp    80483e0 <register_tm_clones>

0804846c <main>:
 804846c:	55                   	push   %ebp
 804846d:	89 e5                	mov    %esp,%ebp
 804846f:	83 e4 f0             	and    $0xfffffff0,%esp
 8048472:	83 ec 20             	sub    $0x20,%esp
 8048475:	c7 44 24 1c cd ab 00 	movl   $0xabcd,0x1c(%esp)
 804847c:	00 
 804847d:	c7 04 24 68 85 04 08 	movl   $0x8048568,(%esp)
 8048484:	e8 c7 fe ff ff       	call   8048350 <puts@plt>
 8048489:	8d 44 24 18          	lea    0x18(%esp),%eax
 804848d:	89 04 24             	mov    %eax,(%esp)
 8048490:	e8 ab fe ff ff       	call   8048340 <gets@plt>
 8048495:	8b 44 24 1c          	mov    0x1c(%esp),%eax
 8048499:	89 44 24 04          	mov    %eax,0x4(%esp)
 804849d:	c7 04 24 78 85 04 08 	movl   $0x8048578,(%esp)
 80484a4:	e8 87 fe ff ff       	call   8048330 <printf@plt>
 80484a9:	b8 00 00 00 00       	mov    $0x0,%eax
 80484ae:	c9                   	leave  
 80484af:	c3                   	ret    

080484b0 <evil_function>:
 80484b0:	55                   	push   %ebp
 80484b1:	89 e5                	mov    %esp,%ebp
 80484b3:	83 ec 18             	sub    $0x18,%esp
 80484b6:	c7 04 24 89 85 04 08 	movl   $0x8048589,(%esp)
 80484bd:	e8 6e fe ff ff       	call   8048330 <printf@plt>
 80484c2:	c9                   	leave  
 80484c3:	c3                   	ret    
 80484c4:	66 90                	xchg   %ax,%ax
 80484c6:	66 90                	xchg   %ax,%ax
 80484c8:	66 90                	xchg   %ax,%ax
 80484ca:	66 90                	xchg   %ax,%ax
 80484cc:	66 90                	xchg   %ax,%ax
 80484ce:	66 90                	xchg   %ax,%ax

080484d0 <__libc_csu_init>:
 80484d0:	55                   	push   %ebp
 80484d1:	57                   	push   %edi
 80484d2:	56                   	push   %esi
 80484d3:	53                   	push   %ebx
 80484d4:	e8 69 00 00 00       	call   8048542 <__i686.get_pc_thunk.bx>
 80484d9:	81 c3 27 1b 00 00    	add    $0x1b27,%ebx
 80484df:	83 ec 1c             	sub    $0x1c,%esp
 80484e2:	8b 6c 24 30          	mov    0x30(%esp),%ebp
 80484e6:	8d bb 0c ff ff ff    	lea    -0xf4(%ebx),%edi
 80484ec:	e8 ff fd ff ff       	call   80482f0 <_init>
 80484f1:	8d 83 08 ff ff ff    	lea    -0xf8(%ebx),%eax
 80484f7:	29 c7                	sub    %eax,%edi
 80484f9:	c1 ff 02             	sar    $0x2,%edi
 80484fc:	85 ff                	test   %edi,%edi
 80484fe:	74 29                	je     8048529 <__libc_csu_init+0x59>
 8048500:	31 f6                	xor    %esi,%esi
 8048502:	8d b6 00 00 00 00    	lea    0x0(%esi),%esi
 8048508:	8b 44 24 38          	mov    0x38(%esp),%eax
 804850c:	89 2c 24             	mov    %ebp,(%esp)
 804850f:	89 44 24 08          	mov    %eax,0x8(%esp)
 8048513:	8b 44 24 34          	mov    0x34(%esp),%eax
 8048517:	89 44 24 04          	mov    %eax,0x4(%esp)
 804851b:	ff 94 b3 08 ff ff ff 	call   *-0xf8(%ebx,%esi,4)
 8048522:	83 c6 01             	add    $0x1,%esi
 8048525:	39 fe                	cmp    %edi,%esi
 8048527:	75 df                	jne    8048508 <__libc_csu_init+0x38>
 8048529:	83 c4 1c             	add    $0x1c,%esp
 804852c:	5b                   	pop    %ebx
 804852d:	5e                   	pop    %esi
 804852e:	5f                   	pop    %edi
 804852f:	5d                   	pop    %ebp
 8048530:	c3                   	ret    
 8048531:	eb 0d                	jmp    8048540 <__libc_csu_fini>
 8048533:	90                   	nop
 8048534:	90                   	nop
 8048535:	90                   	nop
 8048536:	90                   	nop
 8048537:	90                   	nop
 8048538:	90                   	nop
 8048539:	90                   	nop
 804853a:	90                   	nop
 804853b:	90                   	nop
 804853c:	90                   	nop
 804853d:	90                   	nop
 804853e:	90                   	nop
 804853f:	90                   	nop

08048540 <__libc_csu_fini>:
 8048540:	f3 c3                	repz ret 

08048542 <__i686.get_pc_thunk.bx>:
 8048542:	8b 1c 24             	mov    (%esp),%ebx
 8048545:	c3                   	ret    
 8048546:	66 90                	xchg   %ax,%ax

Disassembly of section .fini:

08048548 <_fini>:
 8048548:	53                   	push   %ebx
 8048549:	83 ec 08             	sub    $0x8,%esp
 804854c:	e8 00 00 00 00       	call   8048551 <_fini+0x9>
 8048551:	5b                   	pop    %ebx
 8048552:	81 c3 af 1a 00 00    	add    $0x1aaf,%ebx
 8048558:	83 c4 08             	add    $0x8,%esp
 804855b:	5b                   	pop    %ebx
 804855c:	c3                   	ret    
